target datalayout = "e-m:e-p270:32:32-p271:32:32-p272:64:64-i64:64-i128:128-f80:128-n8:16:32:64-S128"
target triple = "x86_64-pc-linux-gnu"

; Function Attrs: nounwind uwtable
define hidden i64 @lexbor_conv_data_to_long(ptr noundef %0, i64 noundef %1) #0 {
  %3 = alloca ptr, align 8
  %4 = alloca i64, align 8
  %5 = alloca i8, align 1
  %6 = alloca ptr, align 8
  %7 = alloca ptr, align 8
  %8 = alloca i64, align 8
  %9 = alloca i64, align 8
  store ptr %0, ptr %3, align 8, !tbaa !14
  store i64 %1, ptr %4, align 8, !tbaa !11
  call void @llvm.lifetime.start.p0(i64 1, ptr %5) #3
  call void @llvm.lifetime.start.p0(i64 8, ptr %6) #3
  call void @llvm.lifetime.start.p0(i64 8, ptr %7) #3
  call void @llvm.lifetime.start.p0(i64 8, ptr %8) #3
  store i64 0, ptr %8, align 8, !tbaa !11
  call void @llvm.lifetime.start.p0(i64 8, ptr %9) #3
  store i64 0, ptr %9, align 8, !tbaa !11
  store i8 0, ptr %5, align 1, !tbaa !18
  %10 = load ptr, ptr %3, align 8, !tbaa !14
  %11 = load ptr, ptr %10, align 8, !tbaa !8
  store ptr %11, ptr %6, align 8, !tbaa !8
  %12 = load ptr, ptr %6, align 8, !tbaa !8
  %13 = load i64, ptr %4, align 8, !tbaa !11
  %14 = getelementptr inbounds nuw i8, ptr %12, i64 %13
  store ptr %14, ptr %7, align 8, !tbaa !8
  %15 = load ptr, ptr %6, align 8, !tbaa !8
  %16 = load i8, ptr %15, align 1, !tbaa !13
  %17 = zext i8 %16 to i32
  switch i32 %17, label %22 [
    i32 45, label %18
    i32 43, label %19
  ]

18:                                               ; preds = %2
  store i8 1, ptr %5, align 1, !tbaa !18
  br label %19

19:                                               ; preds = %2, %18
  %20 = load ptr, ptr %6, align 8, !tbaa !8
  %21 = getelementptr inbounds nuw i8, ptr %20, i32 1
  store ptr %21, ptr %6, align 8, !tbaa !8
  br label %22

22:                                               ; preds = %2, %19
  br label %23

23:                                               ; preds = %22
  br label %24

24:                                               ; preds = %55, %23
  %25 = load ptr, ptr %6, align 8, !tbaa !8
  %26 = load ptr, ptr %7, align 8, !tbaa !8
  %27 = icmp ult ptr %25, %26
  br i1 %27, label %28, label %58

28:                                               ; preds = %24
  %29 = load ptr, ptr %6, align 8, !tbaa !8
  %30 = load i8, ptr %29, align 1, !tbaa !13
  %31 = zext i8 %30 to i32
  %32 = icmp slt i32 %31, 48
  br i1 %32, label %38, label %33

33:                                               ; preds = %28
  %34 = load ptr, ptr %6, align 8, !tbaa !8
  %35 = load i8, ptr %34, align 1, !tbaa !13
  %36 = zext i8 %35 to i32
  %37 = icmp sgt i32 %36, 57
  br i1 %37, label %38, label %39

38:                                               ; preds = %33, %28
  br label %58

39:                                               ; preds = %33
  %40 = load ptr, ptr %6, align 8, !tbaa !8
  %41 = load i8, ptr %40, align 1, !tbaa !13
  %42 = zext i8 %41 to i32
  %43 = sub nsw i32 %42, 48
  %44 = sext i32 %43 to i64
  %45 = load i64, ptr %9, align 8, !tbaa !11
  %46 = mul i64 %45, 10
  %47 = add i64 %44, %46
  store i64 %47, ptr %8, align 8, !tbaa !11
  %48 = load i64, ptr %8, align 8, !tbaa !11
  %49 = icmp ugt i64 %48, 9223372036854775807
  br i1 %49, label %50, label %53

50:                                               ; preds = %39
  %51 = load ptr, ptr %6, align 8, !tbaa !8
  %52 = getelementptr inbounds i8, ptr %51, i64 -1
  store ptr %52, ptr %6, align 8, !tbaa !8
  br label %58

53:                                               ; preds = %39
  %54 = load i64, ptr %8, align 8, !tbaa !11
  store i64 %54, ptr %9, align 8, !tbaa !11
  br label %55

55:                                               ; preds = %53
  %56 = load ptr, ptr %6, align 8, !tbaa !8
  %57 = getelementptr inbounds nuw i8, ptr %56, i32 1
  store ptr %57, ptr %6, align 8, !tbaa !8
  br label %24

58:                                               ; preds = %50, %38, %24
  %59 = load ptr, ptr %6, align 8, !tbaa !8
  %60 = load ptr, ptr %3, align 8, !tbaa !14
  store ptr %59, ptr %60, align 8, !tbaa !8
  %61 = load i8, ptr %5, align 1, !tbaa !18, !range !20, !noundef !21
  %62 = trunc i8 %61 to i1
  br i1 %62, label %63, label %66

63:                                               ; preds = %58
  %64 = load i64, ptr %9, align 8, !tbaa !11
  %65 = sub i64 0, %64
  br label %68

66:                                               ; preds = %58
  %67 = load i64, ptr %9, align 8, !tbaa !11
  br label %68

68:                                               ; preds = %66, %63
  %69 = phi i64 [ %65, %63 ], [ %67, %66 ]
  call void @llvm.lifetime.end.p0(i64 8, ptr %9) #3
  call void @llvm.lifetime.end.p0(i64 8, ptr %8) #3
  call void @llvm.lifetime.end.p0(i64 8, ptr %7) #3
  call void @llvm.lifetime.end.p0(i64 8, ptr %6) #3
  call void @llvm.lifetime.end.p0(i64 1, ptr %5) #3
  ret i64 %69
}