; Function Attrs: nofree norecurse nosync nounwind memory(read, argmem: readwrite, inaccessiblemem: none) uwtable
define hidden i64 @lexbor_conv_data_to_long(ptr noundef captures(none) %0, i64 noundef %1) local_unnamed_addr #4 {
  %3 = load ptr, ptr %0, align 8, !tbaa !7
  %4 = getelementptr inbounds nuw i8, ptr %3, i64 %1
  %5 = load i8, ptr %3, align 1, !tbaa !4
  switch i8 %5, label %9 [
    i8 45, label %6
    i8 43, label %7
  ]

6:                                                ; preds = %2
  br label %7

7:                                                ; preds = %6, %2
  %.019 = phi i1 [ false, %2 ], [ true, %6 ]
  %8 = getelementptr inbounds nuw i8, ptr %3, i64 1
  br label %9

9:                                                ; preds = %2, %7
  %.020 = phi ptr [ %3, %2 ], [ %8, %7 ]
  %.1 = phi i1 [ false, %2 ], [ %.019, %7 ]
  %10 = icmp ult ptr %.020, %4
  br i1 %10, label %.lr.ph, label %.loopexit

.lr.ph:                                           ; preds = %9, %21
  %.028 = phi i64 [ %17, %21 ], [ 0, %9 ]
  %.12127 = phi ptr [ %22, %21 ], [ %.020, %9 ]
  %11 = load i8, ptr %.12127, align 1, !tbaa !4
  %12 = add i8 %11, -58
  %or.cond = icmp ult i8 %12, -10
  br i1 %or.cond, label %.loopexit, label %13

13:                                               ; preds = %.lr.ph
  %14 = and i8 %11, 15
  %15 = zext nneg i8 %14 to i64
  %16 = mul i64 %.028, 10
  %17 = add i64 %16, %15
  %18 = icmp slt i64 %17, 0
  br i1 %18, label %19, label %21

19:                                               ; preds = %13
  %20 = getelementptr inbounds i8, ptr %.12127, i64 -1
  br label %.loopexit

21:                                               ; preds = %13
  %22 = getelementptr inbounds nuw i8, ptr %.12127, i64 1
  %23 = icmp ult ptr %22, %4
  br i1 %23, label %.lr.ph, label %.loopexit

.loopexit:                                        ; preds = %21, %.lr.ph, %9, %19
  %.025 = phi i64 [ %.028, %19 ], [ 0, %9 ], [ %17, %21 ], [ %.028, %.lr.ph ]
  %.2 = phi ptr [ %20, %19 ], [ %.020, %9 ], [ %22, %21 ], [ %.12127, %.lr.ph ]
  store ptr %.2, ptr %0, align 8, !tbaa !7
  %24 = sub nsw i64 0, %.025
  %25 = select i1 %.1, i64 %24, i64 %.025
  ret i64 %25
}